target datalayout = "e-m:e-p270:32:32-p271:32:32-p272:64:64-i64:64-i128:128-f80:128-n8:16:32:64-S128"
target triple = "x86_64-pc-linux-gnu"

%"class.std::vector" = type { %"struct.std::_Vector_base" }
%"struct.std::_Vector_base" = type { %"struct.std::_Vector_base<const Variable *, std::allocator<const Variable *>>::_Vector_impl" }
%"struct.std::_Vector_base<const Variable *, std::allocator<const Variable *>>::_Vector_impl" = type { %"struct.std::_Vector_base<const Variable *, std::allocator<const Variable *>>::_Vector_impl_data" }
%"struct.std::_Vector_base<const Variable *, std::allocator<const Variable *>>::_Vector_impl_data" = type { ptr, ptr, ptr }
%class.CGContext = type { ptr, i32, i32, i32, %"class.std::vector.0", ptr, ptr, %"class.std::map", ptr, ptr, ptr, %class.Effect }
%"class.std::vector.0" = type { %"struct.std::_Vector_base.1" }
%"struct.std::_Vector_base.1" = type { %"struct.std::_Vector_base<const Block *, std::allocator<const Block *>>::_Vector_impl" }
%"struct.std::_Vector_base<const Block *, std::allocator<const Block *>>::_Vector_impl" = type { %"struct.std::_Vector_base<const Block *, std::allocator<const Block *>>::_Vector_impl_data" }
%"struct.std::_Vector_base<const Block *, std::allocator<const Block *>>::_Vector_impl_data" = type { ptr, ptr, ptr }
%"class.std::map" = type { %"class.std::_Rb_tree" }
%"class.std::_Rb_tree" = type { %"struct.std::_Rb_tree<const Variable *, std::pair<const Variable *const, unsigned int>, std::_Select1st<std::pair<const Variable *const, unsigned int>>, std::less<const Variable *>>::_Rb_tree_impl" }
%"struct.std::_Rb_tree<const Variable *, std::pair<const Variable *const, unsigned int>, std::_Select1st<std::pair<const Variable *const, unsigned int>>, std::less<const Variable *>>::_Rb_tree_impl" = type { %"struct.std::_Rb_tree_key_compare", %"struct.std::_Rb_tree_header" }
%"struct.std::_Rb_tree_key_compare" = type { %"struct.std::less" }
%"struct.std::less" = type { i8 }
%"struct.std::_Rb_tree_header" = type { %"struct.std::_Rb_tree_node_base", i64 }
%"struct.std::_Rb_tree_node_base" = type { i32, ptr, ptr, ptr }
%class.Effect = type <{ %"class.std::vector", %"class.std::vector", %"class.std::vector", i8, i8, [6 x i8] }>

; Function Attrs: mustprogress nounwind uwtable
define linkonce_odr dso_local noundef zeroext i1 @_ZNK6Effect19is_side_effect_freeEv(ptr noundef nonnull align 8 dereferenceable(74) %0) #4 comdat align 2 {
  %2 = alloca ptr, align 8
  store ptr %0, ptr %2, align 8
  %3 = load ptr, ptr %2, align 8
  %4 = getelementptr inbounds %class.Effect, ptr %3, i32 0, i32 4
  %5 = load i8, ptr %4, align 1
  %6 = trunc i8 %5 to i1
  ret i1 %6
}

; Function Attrs: mustprogress nounwind uwtable
define linkonce_odr dso_local noundef nonnull align 8 dereferenceable(74) ptr @_ZNK9CGContext18get_effect_contextEv(ptr noundef nonnull align 8 dereferenceable(216) %0) #4 comdat align 2 {
  %2 = alloca ptr, align 8
  store ptr %0, ptr %2, align 8
  %3 = load ptr, ptr %2, align 8
  %4 = getelementptr inbounds %class.CGContext, ptr %3, i32 0, i32 9
  %5 = load ptr, ptr %4, align 8
  ret ptr %5
}

; Function Attrs: mustprogress uwtable
define dso_local noundef zeroext i1 @_ZNK9CGContext11accept_typeEPK4Type(ptr noundef nonnull align 8 dereferenceable(216) %0, ptr noundef %1) #5 align 2 {
  %3 = alloca ptr, align 8
  %4 = alloca ptr, align 8
  store ptr %0, ptr %3, align 8
  store ptr %1, ptr %4, align 8
  %5 = load ptr, ptr %3, align 8
  %6 = call noundef nonnull align 8 dereferenceable(74) ptr @_ZNK9CGContext18get_effect_contextEv(ptr noundef nonnull align 8 dereferenceable(216) %5)
  %7 = call noundef zeroext i1 @_ZNK6Effect19is_side_effect_freeEv(ptr noundef nonnull align 8 dereferenceable(74) %6)
  br i1 %7, label %12, label %8

8:                                                ; preds = %2
  %9 = load ptr, ptr %4, align 8
  %10 = call noundef zeroext i1 @_ZNK4Type24is_volatile_struct_unionEv(ptr noundef nonnull align 8 dereferenceable(136) %9)
  %11 = xor i1 %10, true
  br label %12

12:                                               ; preds = %8, %2
  %13 = phi i1 [ true, %2 ], [ %11, %8 ]
  ret i1 %13
}