; Function Attrs: mustprogress uwtable
define dso_local noundef zeroext i1 @_ZNK9CGContext11accept_typeEPK4Type(ptr noundef nonnull readonly align 8 captures(none) dereferenceable(216) %0, ptr noundef %1) local_unnamed_addr #4 align 2 {
  %3 = getelementptr inbounds nuw i8, ptr %0, i64 120
  %4 = load ptr, ptr %3, align 8
  %5 = getelementptr inbounds nuw i8, ptr %4, i64 73
  %6 = load i8, ptr %5, align 1
  %7 = trunc i8 %6 to i1
  br i1 %7, label %11, label %8

8:                                                ; preds = %2
  %9 = tail call noundef zeroext i1 @_ZNK4Type24is_volatile_struct_unionEv(ptr noundef nonnull align 8 dereferenceable(136) %1)
  %10 = xor i1 %9, true
  br label %11

11:                                               ; preds = %8, %2
  %12 = phi i1 [ true, %2 ], [ %10, %8 ]
  ret i1 %12
}